target datalayout = "e-m:e-p270:32:32-p271:32:32-p272:64:64-i64:64-i128:128-f80:128-n8:16:32:64-S128"
target triple = "x86_64-pc-linux-gnu"

%struct.gtable = type { [109 x float], [109 x i32], [109 x i32] }
%"class.std::__cxx11::basic_string" = type { %"struct.std::__cxx11::basic_string<char>::_Alloc_hider", i64, %union.anon }
%"struct.std::__cxx11::basic_string<char>::_Alloc_hider" = type { ptr }
%union.anon = type { i64, [8 x i8] }
%"class.std::allocator.31" = type { i8 }

@.str.1 = private unnamed_addr constant [137 x i8] c"generated/home/dtcxzyw/WorkSpace/Projects/compilers/llvm-opt-benchmark/bench/opencv/opencv/modules/features2d/src/kaze/AKAZEFeatures.cpp\00", align 1
@.str.26 = private unnamed_addr constant [8 x i8] c"k < 109\00", align 1
@__func__._ZZN2cvL34Sample_Derivative_Response_Radius6ERKNS_3MatES2_iiiPfS3_EN6gtableC2Ev = private unnamed_addr constant [7 x i8] c"gtable\00", align 1

; Function Attrs: mustprogress uwtable
define internal void @_ZZN2cvL34Sample_Derivative_Response_Radius6ERKNS_3MatES2_iiiPfS3_EN6gtableC2Ev(ptr noundef nonnull align 4 dereferenceable(1308) %0) unnamed_addr #4 align 2 personality ptr @__gxx_personality_v0 {
  %2 = alloca ptr, align 8
  %3 = alloca i32, align 4
  %4 = alloca i32, align 4
  %5 = alloca i32, align 4
  %6 = alloca %"class.std::__cxx11::basic_string", align 8
  %7 = alloca %"class.std::allocator.31", align 1
  %8 = alloca ptr, align 8
  %9 = alloca i32, align 4
  store ptr %0, ptr %2, align 8
  %10 = load ptr, ptr %2, align 8
  store i32 0, ptr %3, align 4
  store i32 -6, ptr %4, align 4
  br label %11

11:                                               ; preds = %76, %1
  %12 = load i32, ptr %4, align 4
  %13 = icmp sle i32 %12, 6
  br i1 %13, label %14, label %79

14:                                               ; preds = %11
  store i32 -6, ptr %5, align 4
  br label %15

15:                                               ; preds = %72, %14
  %16 = load i32, ptr %5, align 4
  %17 = icmp sle i32 %16, 6
  br i1 %17, label %18, label %75

18:                                               ; preds = %15
  %19 = load i32, ptr %4, align 4
  %20 = load i32, ptr %4, align 4
  %21 = mul nsw i32 %19, %20
  %22 = load i32, ptr %5, align 4
  %23 = load i32, ptr %5, align 4
  %24 = mul nsw i32 %22, %23
  %25 = add nsw i32 %21, %24
  %26 = icmp slt i32 %25, 36
  br i1 %26, label %27, label %71

27:                                               ; preds = %18
  br label %28

28:                                               ; preds = %27
  %29 = load i32, ptr %3, align 4
  %30 = icmp slt i32 %29, 109
  br i1 %30, label %31, label %32

31:                                               ; preds = %28
  br label %44

32:                                               ; preds = %28
  call void @_ZNSaIcEC1Ev(ptr noundef nonnull align 1 dereferenceable(1) %7) #3
  invoke void @_ZNSt7__cxx1112basic_stringIcSt11char_traitsIcESaIcEEC1EPKcRKS3_(ptr noundef nonnull align 8 dereferenceable(32) %6, ptr noundef @.str.26, ptr noundef nonnull align 1 dereferenceable(1) %7)
          to label %33 unwind label %35

33:                                               ; preds = %32
  invoke void @_ZN2cv5errorEiRKNSt7__cxx1112basic_stringIcSt11char_traitsIcESaIcEEEPKcS9_i(i32 noundef -215, ptr noundef nonnull align 8 dereferenceable(32) %6, ptr noundef @__func__._ZZN2cvL34Sample_Derivative_Response_Radius6ERKNS_3MatES2_iiiPfS3_EN6gtableC2Ev, ptr noundef @.str.1, i32 noundef 1283) #16
          to label %34 unwind label %39

34:                                               ; preds = %33
  unreachable

35:                                               ; preds = %32
  %36 = landingpad { ptr, i32 }
          cleanup
  %37 = extractvalue { ptr, i32 } %36, 0
  store ptr %37, ptr %8, align 8
  %38 = extractvalue { ptr, i32 } %36, 1
  store i32 %38, ptr %9, align 4
  br label %43

39:                                               ; preds = %33
  %40 = landingpad { ptr, i32 }
          cleanup
  %41 = extractvalue { ptr, i32 } %40, 0
  store ptr %41, ptr %8, align 8
  %42 = extractvalue { ptr, i32 } %40, 1
  store i32 %42, ptr %9, align 4
  call void @_ZNSt7__cxx1112basic_stringIcSt11char_traitsIcESaIcEED1Ev(ptr noundef nonnull align 8 dereferenceable(32) %6) #3
  br label %43

43:                                               ; preds = %39, %35
  call void @_ZNSaIcED1Ev(ptr noundef nonnull align 1 dereferenceable(1) %7) #3
  br label %80

44:                                               ; preds = %31
  br label %45

45:                                               ; preds = %44
  %46 = load i32, ptr %4, align 4
  %47 = call i32 @llvm.abs.i32(i32 %46, i1 true)
  %48 = sext i32 %47 to i64
  %49 = getelementptr inbounds [7 x [7 x float]], ptr @_ZZN2cvL34Sample_Derivative_Response_Radius6ERKNS_3MatES2_iiiPfS3_E7gauss25, i64 0, i64 %48
  %50 = load i32, ptr %5, align 4
  %51 = call i32 @llvm.abs.i32(i32 %50, i1 true)
  %52 = sext i32 %51 to i64
  %53 = getelementptr inbounds [7 x float], ptr %49, i64 0, i64 %52
  %54 = load float, ptr %53, align 4
  %55 = getelementptr inbounds %struct.gtable, ptr %10, i32 0, i32 0
  %56 = load i32, ptr %3, align 4
  %57 = sext i32 %56 to i64
  %58 = getelementptr inbounds [109 x float], ptr %55, i64 0, i64 %57
  store float %54, ptr %58, align 4
  %59 = load i32, ptr %4, align 4
  %60 = getelementptr inbounds %struct.gtable, ptr %10, i32 0, i32 2
  %61 = load i32, ptr %3, align 4
  %62 = sext i32 %61 to i64
  %63 = getelementptr inbounds [109 x i32], ptr %60, i64 0, i64 %62
  store i32 %59, ptr %63, align 4
  %64 = load i32, ptr %5, align 4
  %65 = getelementptr inbounds %struct.gtable, ptr %10, i32 0, i32 1
  %66 = load i32, ptr %3, align 4
  %67 = sext i32 %66 to i64
  %68 = getelementptr inbounds [109 x i32], ptr %65, i64 0, i64 %67
  store i32 %64, ptr %68, align 4
  %69 = load i32, ptr %3, align 4
  %70 = add nsw i32 %69, 1
  store i32 %70, ptr %3, align 4
  br label %71

71:                                               ; preds = %45, %18
  br label %72

72:                                               ; preds = %71
  %73 = load i32, ptr %5, align 4
  %74 = add nsw i32 %73, 1
  store i32 %74, ptr %5, align 4
  br label %15, !llvm.loop !90

75:                                               ; preds = %15
  br label %76

76:                                               ; preds = %75
  %77 = load i32, ptr %4, align 4
  %78 = add nsw i32 %77, 1
  store i32 %78, ptr %4, align 4
  br label %11, !llvm.loop !91

79:                                               ; preds = %11
  ret void

80:                                               ; preds = %43
  %81 = load ptr, ptr %8, align 8
  %82 = load i32, ptr %9, align 4
  %83 = insertvalue { ptr, i32 } poison, ptr %81, 0
  %84 = insertvalue { ptr, i32 } %83, i32 %82, 1
  resume { ptr, i32 } %84
}