; Function Attrs: mustprogress uwtable
define internal fastcc void @_ZZN2cvL34Sample_Derivative_Response_Radius6ERKNS_3MatES2_iiiPfS3_EN6gtableC2Ev() unnamed_addr #3 align 2 personality ptr @__gxx_personality_v0 {
  %1 = alloca %"class.std::__cxx11::basic_string", align 8
  %2 = alloca %"class.std::allocator.31", align 1
  br label %.preheader

.preheader:                                       ; preds = %0, %32
  %.0215 = phi i32 [ -6, %0 ], [ %33, %32 ]
  %.0224 = phi i32 [ 0, %0 ], [ %.2, %32 ]
  %3 = mul nsw i32 %.0215, %.0215
  %4 = tail call i32 @llvm.abs.i32(i32 %.0215, i1 true)
  %5 = zext nneg i32 %4 to i64
  br label %6

6:                                                ; preds = %.preheader, %30
  %.0203 = phi i32 [ -6, %.preheader ], [ %31, %30 ]
  %.12 = phi i32 [ %.0224, %.preheader ], [ %.2, %30 ]
  %7 = mul nsw i32 %.0203, %.0203
  %8 = add nuw nsw i32 %7, %3
  %9 = icmp ult i32 %8, 36
  br i1 %9, label %10, label %30

10:                                               ; preds = %6
  %11 = icmp slt i32 %.12, 109
  br i1 %11, label %20, label %12

12:                                               ; preds = %10
  call void @_ZNSaIcEC1Ev(ptr noundef nonnull align 1 dereferenceable(1) %2) #21
  invoke void @_ZNSt7__cxx1112basic_stringIcSt11char_traitsIcESaIcEEC1EPKcRKS3_(ptr noundef nonnull align 8 dereferenceable(32) %1, ptr noundef nonnull @.str.26, ptr noundef nonnull align 1 dereferenceable(1) %2)
          to label %13 unwind label %15

13:                                               ; preds = %12
  invoke void @_ZN2cv5errorEiRKNSt7__cxx1112basic_stringIcSt11char_traitsIcESaIcEEEPKcS9_i(i32 noundef -215, ptr noundef nonnull align 8 dereferenceable(32) %1, ptr noundef nonnull @__func__._ZZN2cvL34Sample_Derivative_Response_Radius6ERKNS_3MatES2_iiiPfS3_EN6gtableC2Ev, ptr noundef nonnull @.str.1, i32 noundef 1283) #23
          to label %14 unwind label %17

14:                                               ; preds = %13
  unreachable

15:                                               ; preds = %12
  %16 = landingpad { ptr, i32 }
          cleanup
  br label %19

17:                                               ; preds = %13
  %18 = landingpad { ptr, i32 }
          cleanup
  call void @_ZNSt7__cxx1112basic_stringIcSt11char_traitsIcESaIcEED1Ev(ptr noundef nonnull align 8 dereferenceable(32) %1) #21
  br label %19

19:                                               ; preds = %17, %15
  %.pn = phi { ptr, i32 } [ %18, %17 ], [ %16, %15 ]
  call void @_ZNSaIcED1Ev(ptr noundef nonnull align 1 dereferenceable(1) %2) #21
  resume { ptr, i32 } %.pn

20:                                               ; preds = %10
  %21 = tail call i32 @llvm.abs.i32(i32 %.0203, i1 true)
  %22 = zext nneg i32 %21 to i64
  %23 = getelementptr inbounds [7 x [7 x float]], ptr @_ZZN2cvL34Sample_Derivative_Response_Radius6ERKNS_3MatES2_iiiPfS3_E7gauss25, i64 0, i64 %5, i64 %22
  %24 = load float, ptr %23, align 4
  %25 = sext i32 %.12 to i64
  %26 = getelementptr inbounds [109 x float], ptr @_ZZN2cvL34Sample_Derivative_Response_Radius6ERKNS_3MatES2_iiiPfS3_E1g, i64 0, i64 %25
  store float %24, ptr %26, align 4
  %27 = getelementptr inbounds [109 x i32], ptr getelementptr inbounds (i8, ptr @_ZZN2cvL34Sample_Derivative_Response_Radius6ERKNS_3MatES2_iiiPfS3_E1g, i64 872), i64 0, i64 %25
  store i32 %.0215, ptr %27, align 4
  %28 = getelementptr inbounds [109 x i32], ptr getelementptr inbounds (i8, ptr @_ZZN2cvL34Sample_Derivative_Response_Radius6ERKNS_3MatES2_iiiPfS3_E1g, i64 436), i64 0, i64 %25
  store i32 %.0203, ptr %28, align 4
  %29 = add nsw i32 %.12, 1
  br label %30

30:                                               ; preds = %6, %20
  %.2 = phi i32 [ %29, %20 ], [ %.12, %6 ]
  %31 = add nsw i32 %.0203, 1
  %exitcond.not = icmp eq i32 %31, 7
  br i1 %exitcond.not, label %32, label %6, !llvm.loop !133

32:                                               ; preds = %30
  %33 = add nsw i32 %.0215, 1
  %exitcond6.not = icmp eq i32 %33, 7
  br i1 %exitcond6.not, label %34, label %.preheader, !llvm.loop !134

34:                                               ; preds = %32
  ret void
}